; Function Attrs: mustprogress uwtable
define dso_local void @_ZN15cmTestGenerator21GenerateScriptActionsERSo23cmScriptGeneratorIndent(ptr noundef nonnull align 8 dereferenceable(129) %0, ptr noundef nonnull align 8 dereferenceable(8) %1, i32 %2) unnamed_addr #3 align 2 {
  %4 = getelementptr inbounds i8, ptr %0, i64 104
  %5 = load i8, ptr %4, align 8
  %6 = and i8 %5, 1
  %.not = icmp eq i8 %6, 0
  br i1 %.not, label %8, label %7

7:                                                ; preds = %3
  tail call void @_ZN17cmScriptGenerator21GenerateScriptActionsERSo23cmScriptGeneratorIndent(ptr noundef nonnull align 8 dereferenceable(105) %0, ptr noundef nonnull align 8 dereferenceable(8) %1, i32 %2)
  br label %9

8:                                                ; preds = %3
  tail call void @_ZN15cmTestGenerator16GenerateOldStyleERSo23cmScriptGeneratorIndent(ptr noundef nonnull align 8 dereferenceable(129) %0, ptr noundef nonnull align 8 dereferenceable(8) %1, i32 %2)
  br label %9

9:                                                ; preds = %8, %7
  ret void
}